; ModuleID = '30/1986.c'
source_filename = "30/1986.c"
target datalayout = "e-m:e-p270:32:32-p271:32:32-p272:64:64-i64:64-f80:128-n8:16:32:64-S128"
target triple = "x86_64-pc-linux-gnu"

@.str = private unnamed_addr constant [3 x i8] c"%d\00", align 1

; Function Attrs: noinline nounwind uwtable
define dso_local i32 @main() #0 {
  %1 = alloca i32, align 4
  %2 = alloca i32, align 4
  %3 = alloca i32, align 4
  %4 = alloca i32, align 4
  %5 = alloca i32, align 4
  %6 = alloca i32, align 4
  store i32 0, i32* %1, align 4
  store i32 0, i32* %4, align 4
  %7 = call i32 (i8*, ...) @__isoc99_scanf(i8* getelementptr inbounds ([3 x i8], [3 x i8]* @.str, i64 0, i64 0), i32* %3)
  store i32 1, i32* %2, align 4
  br label %8

8:                                                ; preds = %35, %0
  %9 = load i32, i32* %2, align 4
  %10 = load i32, i32* %3, align 4
  %11 = icmp sle i32 %9, %10
  br i1 %11, label %12, label %38

12:                                               ; preds = %8
  %13 = load i32, i32* %2, align 4
  %14 = srem i32 %13, 10
  store i32 %14, i32* %5, align 4
  %15 = load i32, i32* %2, align 4
  %16 = sdiv i32 %15, 10
  store i32 %16, i32* %6, align 4
  %17 = load i32, i32* %2, align 4
  %18 = srem i32 %17, 7
  %19 = icmp eq i32 %18, 0
  br i1 %19, label %20, label %21

20:                                               ; preds = %12
  br label %35

21:                                               ; preds = %12
  %22 = load i32, i32* %6, align 4
  %23 = icmp eq i32 %22, 7
  br i1 %23, label %24, label %25

24:                                               ; preds = %21
  br label %35

25:                                               ; preds = %21
  %26 = load i32, i32* %5, align 4
  %27 = icmp eq i32 %26, 7
  br i1 %27, label %28, label %29

28:                                               ; preds = %25
  br label %35

29:                                               ; preds = %25
  %30 = load i32, i32* %2, align 4
  %31 = load i32, i32* %2, align 4
  %32 = mul nsw i32 %30, %31
  %33 = load i32, i32* %4, align 4
  %34 = add nsw i32 %33, %32
  store i32 %34, i32* %4, align 4
  br label %35

35:                                               ; preds = %29, %28, %24, %20
  %36 = load i32, i32* %2, align 4
  %37 = add nsw i32 %36, 1
  store i32 %37, i32* %2, align 4
  br label %8

38:                                               ; preds = %8
  %39 = load i32, i32* %4, align 4
  %40 = call i32 (i8*, ...) @printf(i8* getelementptr inbounds ([3 x i8], [3 x i8]* @.str, i64 0, i64 0), i32 %39)
  ret i32 0
}

declare dso_local i32 @__isoc99_scanf(i8*, ...) #1

declare dso_local i32 @printf(i8*, ...) #1


!llvm.module.flags = !{!0}
!llvm.ident = !{!1}

!0 = !{i32 1, !"wchar_size", i32 4}
!1 = !{!"clang version 10.0.0-4ubuntu1 "}
